; Function Attrs: mustprogress uwtable
define noundef zeroext i1 @_ZNK6google8protobuf11EnumOptions13IsInitializedEv(ptr noundef nonnull align 8 dereferenceable(88) %this) unnamed_addr #3 align 2 {
entry:
  %0 = getelementptr inbounds i8, ptr %this, i64 16
  %call2 = tail call noundef zeroext i1 @_ZNK6google8protobuf8internal12ExtensionSet13IsInitializedEPKNS0_11MessageLiteE(ptr noundef nonnull align 8 dereferenceable(24) %0, ptr noundef nonnull @_ZN6google8protobuf30_EnumOptions_default_instance_E)
  br i1 %call2, label %if.end, label %return

if.end:                                           ; preds = %entry
  %uninterpreted_option_.i = getelementptr inbounds i8, ptr %this, i64 48
  %call4 = tail call noundef zeroext i1 @_ZN6google8protobuf8internal17AllAreInitializedINS0_19UninterpretedOptionEEEbRKNS0_16RepeatedPtrFieldIT_EE(ptr noundef nonnull align 8 dereferenceable(24) %uninterpreted_option_.i)
  br i1 %call4, label %if.end6, label %return

if.end6:                                          ; preds = %if.end
  %_has_bits_ = getelementptr inbounds i8, ptr %this, i64 40
  %1 = load i32, ptr %_has_bits_, align 8
  %and = and i32 %1, 1
  %cmp.not = icmp eq i32 %and, 0
  br i1 %cmp.not, label %if.end12, label %if.then8

if.then8:                                         ; preds = %if.end6
  %features_ = getelementptr inbounds i8, ptr %this, i64 72
  %2 = load ptr, ptr %features_, align 8
  %3 = getelementptr inbounds i8, ptr %2, i64 16
  %call2.i = tail call noundef zeroext i1 @_ZNK6google8protobuf8internal12ExtensionSet13IsInitializedEPKNS0_11MessageLiteE(ptr noundef nonnull align 8 dereferenceable(24) %3, ptr noundef nonnull @_ZN6google8protobuf29_FeatureSet_default_instance_E)
  br i1 %call2.i, label %if.end12, label %return

if.end12:                                         ; preds = %if.then8, %if.end6
  br label %return

return:                                           ; preds = %if.then8, %if.end, %entry, %if.end12
  %retval.0 = phi i1 [ true, %if.end12 ], [ false, %entry ], [ false, %if.end ], [ false, %if.then8 ]
  ret i1 %retval.0
}